; Function Attrs: mustprogress nounwind uwtable
define dso_local void @_ZN3net23QuicBufferedPacketStore14BufferedPacketD2Ev(ptr noundef nonnull align 8 dereferenceable(72) %this) unnamed_addr #3 align 2 {
entry:
  %client_address = getelementptr inbounds i8, ptr %this, i64 40
  tail call void @_ZN3net10IPEndPointD1Ev(ptr noundef nonnull align 8 dereferenceable(26) %client_address) #17
  %server_address = getelementptr inbounds i8, ptr %this, i64 8
  tail call void @_ZN3net10IPEndPointD1Ev(ptr noundef nonnull align 8 dereferenceable(26) %server_address) #17
  %0 = load ptr, ptr %this, align 8
  %cmp.not.i = icmp eq ptr %0, null
  br i1 %cmp.not.i, label %_ZNSt10unique_ptrIN3net18QuicReceivedPacketESt14default_deleteIS1_EED2Ev.exit, label %_ZNKSt14default_deleteIN3net18QuicReceivedPacketEEclEPS1_.exit.i

_ZNKSt14default_deleteIN3net18QuicReceivedPacketEEclEPS1_.exit.i: ; preds = %entry
  %vtable.i.i = load ptr, ptr %0, align 8
  %vfn.i.i = getelementptr inbounds i8, ptr %vtable.i.i, i64 8
  %1 = load ptr, ptr %vfn.i.i, align 8
  tail call void %1(ptr noundef nonnull align 8 dereferenceable(45) %0) #17
  br label %_ZNSt10unique_ptrIN3net18QuicReceivedPacketESt14default_deleteIS1_EED2Ev.exit

_ZNSt10unique_ptrIN3net18QuicReceivedPacketESt14default_deleteIS1_EED2Ev.exit: ; preds = %entry, %_ZNKSt14default_deleteIN3net18QuicReceivedPacketEEclEPS1_.exit.i
  store ptr null, ptr %this, align 8
  ret void
}